target datalayout = "e-m:e-p270:32:32-p271:32:32-p272:64:64-i64:64-i128:128-f80:128-n8:16:32:64-S128"
target triple = "x86_64-pc-linux-gnu"

%"class.pxrInternal_v0_24__pxrReserved__::TfToken" = type { %"class.pxrInternal_v0_24__pxrReserved__::TfPointerAndBits" }
%"class.pxrInternal_v0_24__pxrReserved__::TfPointerAndBits" = type { ptr }
%"struct.__gnu_cxx::__ops::_Iter_equals_val" = type { ptr }

; Function Attrs: mustprogress nounwind uwtable
define linkonce_odr noundef i64 @_ZN32pxrInternal_v0_24__pxrReserved__16TfPointerAndBitsIKNS_7TfToken4_RepEE9_GetAlignEv() #2 comdat align 2 {
  ret i64 8
}

; Function Attrs: noreturn nounwind uwtable
define linkonce_odr hidden void @__clang_call_terminate(ptr noundef %0) #9 comdat {
  %2 = call ptr @__cxa_begin_catch(ptr %0) #5
  call void @_ZSt9terminatev() #16
  unreachable
}

; Function Attrs: mustprogress nounwind uwtable
define linkonce_odr noundef i64 @_ZNK32pxrInternal_v0_24__pxrReserved__16TfPointerAndBitsIKNS_7TfToken4_RepEE11GetMaxValueEv(ptr noundef nonnull align 8 dereferenceable(8) %0) #2 comdat align 2 {
  %2 = alloca ptr, align 8
  store ptr %0, ptr %2, align 8
  %3 = call noundef i64 @_ZN32pxrInternal_v0_24__pxrReserved__16TfPointerAndBitsIKNS_7TfToken4_RepEE9_GetAlignEv() #5
  %4 = sub i64 %3, 1
  ret i64 %4
}

; Function Attrs: mustprogress nounwind uwtable
define linkonce_odr noundef ptr @_ZNK32pxrInternal_v0_24__pxrReserved__16TfPointerAndBitsIKNS_7TfToken4_RepEE6_AsPtrEm(ptr noundef nonnull align 8 dereferenceable(8) %0, i64 noundef %1) #2 comdat align 2 {
  %3 = alloca ptr, align 8
  %4 = alloca i64, align 8
  store ptr %0, ptr %3, align 8
  store i64 %1, ptr %4, align 8
  %5 = load i64, ptr %4, align 8
  %6 = inttoptr i64 %5 to ptr
  ret ptr %6
}

; Function Attrs: mustprogress nounwind uwtable
define linkonce_odr noundef i64 @_ZNK32pxrInternal_v0_24__pxrReserved__16TfPointerAndBitsIKNS_7TfToken4_RepEE11_GetBitMaskEv(ptr noundef nonnull align 8 dereferenceable(8) %0) #2 comdat align 2 personality ptr @__gxx_personality_v0 {
  %2 = alloca ptr, align 8
  store ptr %0, ptr %2, align 8
  %3 = load ptr, ptr %2, align 8
  %4 = invoke noundef i64 @_ZNK32pxrInternal_v0_24__pxrReserved__16TfPointerAndBitsIKNS_7TfToken4_RepEE11GetMaxValueEv(ptr noundef nonnull align 8 dereferenceable(8) %3)
          to label %5 unwind label %6

5:                                                ; preds = %1
  ret i64 %4

6:                                                ; preds = %1
  %7 = landingpad { ptr, i32 }
          catch ptr null
  %8 = extractvalue { ptr, i32 } %7, 0
  call void @__clang_call_terminate(ptr %8) #16
  unreachable
}

; Function Attrs: mustprogress nounwind uwtable
define linkonce_odr noundef i64 @_ZNK32pxrInternal_v0_24__pxrReserved__16TfPointerAndBitsIKNS_7TfToken4_RepEE6_AsIntEPS3_(ptr noundef nonnull align 8 dereferenceable(8) %0, ptr noundef %1) #2 comdat align 2 {
  %3 = alloca ptr, align 8
  %4 = alloca ptr, align 8
  store ptr %0, ptr %3, align 8
  store ptr %1, ptr %4, align 8
  %5 = load ptr, ptr %4, align 8
  %6 = ptrtoint ptr %5 to i64
  ret i64 %6
}

; Function Attrs: mustprogress nounwind uwtable
define linkonce_odr noundef ptr @_ZNK32pxrInternal_v0_24__pxrReserved__16TfPointerAndBitsIKNS_7TfToken4_RepEE7_GetPtrEv(ptr noundef nonnull align 8 dereferenceable(8) %0) #2 comdat align 2 {
  %2 = alloca ptr, align 8
  store ptr %0, ptr %2, align 8
  %3 = load ptr, ptr %2, align 8
  %4 = getelementptr inbounds nuw %"class.pxrInternal_v0_24__pxrReserved__::TfPointerAndBits", ptr %3, i32 0, i32 0
  %5 = load ptr, ptr %4, align 8
  %6 = call noundef i64 @_ZNK32pxrInternal_v0_24__pxrReserved__16TfPointerAndBitsIKNS_7TfToken4_RepEE6_AsIntEPS3_(ptr noundef nonnull align 8 dereferenceable(8) %3, ptr noundef %5) #5
  %7 = call noundef i64 @_ZNK32pxrInternal_v0_24__pxrReserved__16TfPointerAndBitsIKNS_7TfToken4_RepEE11_GetBitMaskEv(ptr noundef nonnull align 8 dereferenceable(8) %3) #5
  %8 = xor i64 %7, -1
  %9 = and i64 %6, %8
  %10 = call noundef ptr @_ZNK32pxrInternal_v0_24__pxrReserved__16TfPointerAndBitsIKNS_7TfToken4_RepEE6_AsPtrEm(ptr noundef nonnull align 8 dereferenceable(8) %3, i64 noundef %9) #5
  ret ptr %10
}

; Function Attrs: mustprogress nounwind uwtable
define linkonce_odr noundef ptr @_ZNK32pxrInternal_v0_24__pxrReserved__16TfPointerAndBitsIKNS_7TfToken4_RepEE3GetEv(ptr noundef nonnull align 8 dereferenceable(8) %0) #2 comdat align 2 {
  %2 = alloca ptr, align 8
  store ptr %0, ptr %2, align 8
  %3 = load ptr, ptr %2, align 8
  %4 = call noundef ptr @_ZNK32pxrInternal_v0_24__pxrReserved__16TfPointerAndBitsIKNS_7TfToken4_RepEE7_GetPtrEv(ptr noundef nonnull align 8 dereferenceable(8) %3) #5
  ret ptr %4
}

; Function Attrs: mustprogress nounwind uwtable
define linkonce_odr noundef zeroext i1 @_ZNK32pxrInternal_v0_24__pxrReserved__7TfTokeneqERKS0_(ptr noundef nonnull align 8 dereferenceable(8) %0, ptr noundef nonnull align 8 dereferenceable(8) %1) #2 comdat align 2 {
  %3 = alloca ptr, align 8
  %4 = alloca ptr, align 8
  store ptr %0, ptr %3, align 8
  store ptr %1, ptr %4, align 8
  %5 = load ptr, ptr %3, align 8
  %6 = getelementptr inbounds nuw %"class.pxrInternal_v0_24__pxrReserved__::TfToken", ptr %5, i32 0, i32 0
  %7 = call noundef ptr @_ZNK32pxrInternal_v0_24__pxrReserved__16TfPointerAndBitsIKNS_7TfToken4_RepEE3GetEv(ptr noundef nonnull align 8 dereferenceable(8) %6) #5
  %8 = load ptr, ptr %4, align 8
  %9 = getelementptr inbounds nuw %"class.pxrInternal_v0_24__pxrReserved__::TfToken", ptr %8, i32 0, i32 0
  %10 = call noundef ptr @_ZNK32pxrInternal_v0_24__pxrReserved__16TfPointerAndBitsIKNS_7TfToken4_RepEE3GetEv(ptr noundef nonnull align 8 dereferenceable(8) %9) #5
  %11 = icmp eq ptr %7, %10
  ret i1 %11
}

; Function Attrs: mustprogress nounwind uwtable
define linkonce_odr noundef zeroext i1 @_ZN9__gnu_cxx5__ops16_Iter_equals_valIKN32pxrInternal_v0_24__pxrReserved__7TfTokenEEclIPS4_EEbT_(ptr noundef nonnull align 8 dereferenceable(8) %0, ptr noundef %1) #2 comdat align 2 {
  %3 = alloca ptr, align 8
  %4 = alloca ptr, align 8
  store ptr %0, ptr %3, align 8
  store ptr %1, ptr %4, align 8
  %5 = load ptr, ptr %3, align 8
  %6 = load ptr, ptr %4, align 8
  %7 = getelementptr inbounds nuw %"struct.__gnu_cxx::__ops::_Iter_equals_val", ptr %5, i32 0, i32 0
  %8 = load ptr, ptr %7, align 8
  %9 = call noundef zeroext i1 @_ZNK32pxrInternal_v0_24__pxrReserved__7TfTokeneqERKS0_(ptr noundef nonnull align 8 dereferenceable(8) %6, ptr noundef nonnull align 8 dereferenceable(8) %8)
  ret i1 %9
}

; Function Attrs: mustprogress uwtable
define linkonce_odr noundef ptr @_ZSt9__find_ifIPKN32pxrInternal_v0_24__pxrReserved__7TfTokenEN9__gnu_cxx5__ops16_Iter_equals_valIS2_EEET_S8_S8_T0_St26random_access_iterator_tag(ptr noundef %0, ptr noundef %1, ptr %2) #0 comdat {
  %4 = alloca ptr, align 8
  %5 = alloca %"struct.__gnu_cxx::__ops::_Iter_equals_val", align 8
  %6 = alloca ptr, align 8
  %7 = alloca ptr, align 8
  %8 = alloca i64, align 8
  %9 = getelementptr inbounds nuw %"struct.__gnu_cxx::__ops::_Iter_equals_val", ptr %5, i32 0, i32 0
  store ptr %2, ptr %9, align 8
  store ptr %0, ptr %6, align 8
  store ptr %1, ptr %7, align 8
  %10 = load ptr, ptr %7, align 8
  %11 = load ptr, ptr %6, align 8
  %12 = ptrtoint ptr %10 to i64
  %13 = ptrtoint ptr %11 to i64
  %14 = sub i64 %12, %13
  %15 = sdiv exact i64 %14, 8
  %16 = ashr i64 %15, 2
  store i64 %16, ptr %8, align 8
  br label %17

17:                                               ; preds = %49, %3
  %18 = load i64, ptr %8, align 8
  %19 = icmp sgt i64 %18, 0
  br i1 %19, label %20, label %52

20:                                               ; preds = %17
  %21 = load ptr, ptr %6, align 8
  %22 = call noundef zeroext i1 @_ZN9__gnu_cxx5__ops16_Iter_equals_valIKN32pxrInternal_v0_24__pxrReserved__7TfTokenEEclIPS4_EEbT_(ptr noundef nonnull align 8 dereferenceable(8) %5, ptr noundef %21)
  br i1 %22, label %23, label %25

23:                                               ; preds = %20
  %24 = load ptr, ptr %6, align 8
  store ptr %24, ptr %4, align 8
  br label %86

25:                                               ; preds = %20
  %26 = load ptr, ptr %6, align 8
  %27 = getelementptr inbounds %"class.pxrInternal_v0_24__pxrReserved__::TfToken", ptr %26, i32 1
  store ptr %27, ptr %6, align 8
  %28 = load ptr, ptr %6, align 8
  %29 = call noundef zeroext i1 @_ZN9__gnu_cxx5__ops16_Iter_equals_valIKN32pxrInternal_v0_24__pxrReserved__7TfTokenEEclIPS4_EEbT_(ptr noundef nonnull align 8 dereferenceable(8) %5, ptr noundef %28)
  br i1 %29, label %30, label %32

30:                                               ; preds = %25
  %31 = load ptr, ptr %6, align 8
  store ptr %31, ptr %4, align 8
  br label %86

32:                                               ; preds = %25
  %33 = load ptr, ptr %6, align 8
  %34 = getelementptr inbounds %"class.pxrInternal_v0_24__pxrReserved__::TfToken", ptr %33, i32 1
  store ptr %34, ptr %6, align 8
  %35 = load ptr, ptr %6, align 8
  %36 = call noundef zeroext i1 @_ZN9__gnu_cxx5__ops16_Iter_equals_valIKN32pxrInternal_v0_24__pxrReserved__7TfTokenEEclIPS4_EEbT_(ptr noundef nonnull align 8 dereferenceable(8) %5, ptr noundef %35)
  br i1 %36, label %37, label %39

37:                                               ; preds = %32
  %38 = load ptr, ptr %6, align 8
  store ptr %38, ptr %4, align 8
  br label %86

39:                                               ; preds = %32
  %40 = load ptr, ptr %6, align 8
  %41 = getelementptr inbounds %"class.pxrInternal_v0_24__pxrReserved__::TfToken", ptr %40, i32 1
  store ptr %41, ptr %6, align 8
  %42 = load ptr, ptr %6, align 8
  %43 = call noundef zeroext i1 @_ZN9__gnu_cxx5__ops16_Iter_equals_valIKN32pxrInternal_v0_24__pxrReserved__7TfTokenEEclIPS4_EEbT_(ptr noundef nonnull align 8 dereferenceable(8) %5, ptr noundef %42)
  br i1 %43, label %44, label %46

44:                                               ; preds = %39
  %45 = load ptr, ptr %6, align 8
  store ptr %45, ptr %4, align 8
  br label %86

46:                                               ; preds = %39
  %47 = load ptr, ptr %6, align 8
  %48 = getelementptr inbounds %"class.pxrInternal_v0_24__pxrReserved__::TfToken", ptr %47, i32 1
  store ptr %48, ptr %6, align 8
  br label %49

49:                                               ; preds = %46
  %50 = load i64, ptr %8, align 8
  %51 = add nsw i64 %50, -1
  store i64 %51, ptr %8, align 8
  br label %17, !llvm.loop !100

52:                                               ; preds = %17
  %53 = load ptr, ptr %7, align 8
  %54 = load ptr, ptr %6, align 8
  %55 = ptrtoint ptr %53 to i64
  %56 = ptrtoint ptr %54 to i64
  %57 = sub i64 %55, %56
  %58 = sdiv exact i64 %57, 8
  switch i64 %58, label %84 [
    i64 3, label %59
    i64 2, label %67
    i64 1, label %75
    i64 0, label %83
  ]

59:                                               ; preds = %52
  %60 = load ptr, ptr %6, align 8
  %61 = call noundef zeroext i1 @_ZN9__gnu_cxx5__ops16_Iter_equals_valIKN32pxrInternal_v0_24__pxrReserved__7TfTokenEEclIPS4_EEbT_(ptr noundef nonnull align 8 dereferenceable(8) %5, ptr noundef %60)
  br i1 %61, label %62, label %64

62:                                               ; preds = %59
  %63 = load ptr, ptr %6, align 8
  store ptr %63, ptr %4, align 8
  br label %86

64:                                               ; preds = %59
  %65 = load ptr, ptr %6, align 8
  %66 = getelementptr inbounds %"class.pxrInternal_v0_24__pxrReserved__::TfToken", ptr %65, i32 1
  store ptr %66, ptr %6, align 8
  br label %67

67:                                               ; preds = %64, %52
  %68 = load ptr, ptr %6, align 8
  %69 = call noundef zeroext i1 @_ZN9__gnu_cxx5__ops16_Iter_equals_valIKN32pxrInternal_v0_24__pxrReserved__7TfTokenEEclIPS4_EEbT_(ptr noundef nonnull align 8 dereferenceable(8) %5, ptr noundef %68)
  br i1 %69, label %70, label %72

70:                                               ; preds = %67
  %71 = load ptr, ptr %6, align 8
  store ptr %71, ptr %4, align 8
  br label %86

72:                                               ; preds = %67
  %73 = load ptr, ptr %6, align 8
  %74 = getelementptr inbounds %"class.pxrInternal_v0_24__pxrReserved__::TfToken", ptr %73, i32 1
  store ptr %74, ptr %6, align 8
  br label %75

75:                                               ; preds = %72, %52
  %76 = load ptr, ptr %6, align 8
  %77 = call noundef zeroext i1 @_ZN9__gnu_cxx5__ops16_Iter_equals_valIKN32pxrInternal_v0_24__pxrReserved__7TfTokenEEclIPS4_EEbT_(ptr noundef nonnull align 8 dereferenceable(8) %5, ptr noundef %76)
  br i1 %77, label %78, label %80

78:                                               ; preds = %75
  %79 = load ptr, ptr %6, align 8
  store ptr %79, ptr %4, align 8
  br label %86

80:                                               ; preds = %75
  %81 = load ptr, ptr %6, align 8
  %82 = getelementptr inbounds %"class.pxrInternal_v0_24__pxrReserved__::TfToken", ptr %81, i32 1
  store ptr %82, ptr %6, align 8
  br label %83

83:                                               ; preds = %80, %52
  br label %84

84:                                               ; preds = %83, %52
  %85 = load ptr, ptr %7, align 8
  store ptr %85, ptr %4, align 8
  br label %86

86:                                               ; preds = %84, %78, %70, %62, %44, %37, %30, %23
  %87 = load ptr, ptr %4, align 8
  ret ptr %87
}

; Function Attrs: mustprogress nounwind uwtable
define linkonce_odr void @_ZSt19__iterator_categoryIPKN32pxrInternal_v0_24__pxrReserved__7TfTokenEENSt15iterator_traitsIT_E17iterator_categoryERKS5_(ptr noundef nonnull align 8 dereferenceable(8) %0) #2 comdat {
  %2 = alloca ptr, align 8
  store ptr %0, ptr %2, align 8
  ret void
}

; Function Attrs: mustprogress nounwind uwtable
define linkonce_odr void @_ZN9__gnu_cxx5__ops16_Iter_equals_valIKN32pxrInternal_v0_24__pxrReserved__7TfTokenEEC2ERS4_(ptr noundef nonnull align 8 dereferenceable(8) %0, ptr noundef nonnull align 8 dereferenceable(8) %1) unnamed_addr #2 comdat align 2 {
  %3 = alloca ptr, align 8
  %4 = alloca ptr, align 8
  store ptr %0, ptr %3, align 8
  store ptr %1, ptr %4, align 8
  %5 = load ptr, ptr %3, align 8
  %6 = getelementptr inbounds nuw %"struct.__gnu_cxx::__ops::_Iter_equals_val", ptr %5, i32 0, i32 0
  %7 = load ptr, ptr %4, align 8
  store ptr %7, ptr %6, align 8
  ret void
}

; Function Attrs: mustprogress uwtable
define linkonce_odr noundef ptr @_ZSt9__find_ifIPKN32pxrInternal_v0_24__pxrReserved__7TfTokenEN9__gnu_cxx5__ops16_Iter_equals_valIS2_EEET_S8_S8_T0_(ptr noundef %0, ptr noundef %1, ptr %2) #0 comdat {
  %4 = alloca %"struct.__gnu_cxx::__ops::_Iter_equals_val", align 8
  %5 = alloca ptr, align 8
  %6 = alloca ptr, align 8
  %7 = alloca %"struct.__gnu_cxx::__ops::_Iter_equals_val", align 8
  %8 = getelementptr inbounds nuw %"struct.__gnu_cxx::__ops::_Iter_equals_val", ptr %4, i32 0, i32 0
  store ptr %2, ptr %8, align 8
  store ptr %0, ptr %5, align 8
  store ptr %1, ptr %6, align 8
  %9 = load ptr, ptr %5, align 8
  %10 = load ptr, ptr %6, align 8
  call void @llvm.memcpy.p0.p0.i64(ptr align 8 %7, ptr align 8 %4, i64 8, i1 false)
  call void @_ZSt19__iterator_categoryIPKN32pxrInternal_v0_24__pxrReserved__7TfTokenEENSt15iterator_traitsIT_E17iterator_categoryERKS5_(ptr noundef nonnull align 8 dereferenceable(8) %5)
  %11 = getelementptr inbounds nuw %"struct.__gnu_cxx::__ops::_Iter_equals_val", ptr %7, i32 0, i32 0
  %12 = load ptr, ptr %11, align 8
  %13 = call noundef ptr @_ZSt9__find_ifIPKN32pxrInternal_v0_24__pxrReserved__7TfTokenEN9__gnu_cxx5__ops16_Iter_equals_valIS2_EEET_S8_S8_T0_St26random_access_iterator_tag(ptr noundef %9, ptr noundef %10, ptr %12)
  ret ptr %13
}

; Function Attrs: mustprogress uwtable
define linkonce_odr ptr @_ZN9__gnu_cxx5__ops17__iter_equals_valIKN32pxrInternal_v0_24__pxrReserved__7TfTokenEEENS0_16_Iter_equals_valIT_EERS6_(ptr noundef nonnull align 8 dereferenceable(8) %0) #0 comdat {
  %2 = alloca %"struct.__gnu_cxx::__ops::_Iter_equals_val", align 8
  %3 = alloca ptr, align 8
  store ptr %0, ptr %3, align 8
  %4 = load ptr, ptr %3, align 8
  call void @_ZN9__gnu_cxx5__ops16_Iter_equals_valIKN32pxrInternal_v0_24__pxrReserved__7TfTokenEEC2ERS4_(ptr noundef nonnull align 8 dereferenceable(8) %2, ptr noundef nonnull align 8 dereferenceable(8) %4)
  %5 = getelementptr inbounds nuw %"struct.__gnu_cxx::__ops::_Iter_equals_val", ptr %2, i32 0, i32 0
  %6 = load ptr, ptr %5, align 8
  ret ptr %6
}

; Function Attrs: mustprogress uwtable
define linkonce_odr noundef ptr @_ZSt4findIPKN32pxrInternal_v0_24__pxrReserved__7TfTokenES1_ET_S4_S4_RKT0_(ptr noundef %0, ptr noundef %1, ptr noundef nonnull align 8 dereferenceable(8) %2) #0 comdat {
  %4 = alloca ptr, align 8
  %5 = alloca ptr, align 8
  %6 = alloca ptr, align 8
  %7 = alloca %"struct.__gnu_cxx::__ops::_Iter_equals_val", align 8
  store ptr %0, ptr %4, align 8
  store ptr %1, ptr %5, align 8
  store ptr %2, ptr %6, align 8
  %8 = load ptr, ptr %4, align 8
  %9 = load ptr, ptr %5, align 8
  %10 = load ptr, ptr %6, align 8
  %11 = call ptr @_ZN9__gnu_cxx5__ops17__iter_equals_valIKN32pxrInternal_v0_24__pxrReserved__7TfTokenEEENS0_16_Iter_equals_valIT_EERS6_(ptr noundef nonnull align 8 dereferenceable(8) %10)
  %12 = getelementptr inbounds nuw %"struct.__gnu_cxx::__ops::_Iter_equals_val", ptr %7, i32 0, i32 0
  store ptr %11, ptr %12, align 8
  %13 = getelementptr inbounds nuw %"struct.__gnu_cxx::__ops::_Iter_equals_val", ptr %7, i32 0, i32 0
  %14 = load ptr, ptr %13, align 8
  %15 = call noundef ptr @_ZSt9__find_ifIPKN32pxrInternal_v0_24__pxrReserved__7TfTokenEN9__gnu_cxx5__ops16_Iter_equals_valIS2_EEET_S8_S8_T0_(ptr noundef %8, ptr noundef %9, ptr %14)
  ret ptr %15
}

; Function Attrs: mustprogress uwtable
define internal noundef zeroext i1 @_ZN32pxrInternal_v0_24__pxrReserved__12_GLOBAL__N_19_ContainsERKNS_7VtArrayINS_7TfTokenEEERKS2_(ptr noundef nonnull align 8 dereferenceable(40) %0, ptr noundef nonnull align 8 dereferenceable(8) %1) #0 {
  %3 = alloca ptr, align 8
  %4 = alloca ptr, align 8
  store ptr %0, ptr %3, align 8
  store ptr %1, ptr %4, align 8
  %5 = load ptr, ptr %3, align 8
  %6 = call noundef ptr @_ZNK32pxrInternal_v0_24__pxrReserved__7VtArrayINS_7TfTokenEE6cbeginEv(ptr noundef nonnull align 8 dereferenceable(40) %5)
  %7 = load ptr, ptr %3, align 8
  %8 = call noundef ptr @_ZNK32pxrInternal_v0_24__pxrReserved__7VtArrayINS_7TfTokenEE4cendEv(ptr noundef nonnull align 8 dereferenceable(40) %7)
  %9 = load ptr, ptr %4, align 8
  %10 = call noundef ptr @_ZSt4findIPKN32pxrInternal_v0_24__pxrReserved__7TfTokenES1_ET_S4_S4_RKT0_(ptr noundef %6, ptr noundef %8, ptr noundef nonnull align 8 dereferenceable(8) %9)
  %11 = load ptr, ptr %3, align 8
  %12 = call noundef ptr @_ZNK32pxrInternal_v0_24__pxrReserved__7VtArrayINS_7TfTokenEE4cendEv(ptr noundef nonnull align 8 dereferenceable(40) %11)
  %13 = icmp ne ptr %10, %12
  ret i1 %13
}