; Function Attrs: mustprogress uwtable
define internal fastcc noundef zeroext i1 @_ZN32pxrInternal_v0_24__pxrReserved__12_GLOBAL__N_19_ContainsERKNS_7VtArrayINS_7TfTokenEEERKS2_(ptr noundef nonnull align 8 dereferenceable(40) %0, ptr noundef nonnull readonly align 8 captures(none) dereferenceable(8) %1) unnamed_addr #0 personality ptr @__gxx_personality_v0 {
  %3 = tail call noundef ptr @_ZNK32pxrInternal_v0_24__pxrReserved__7VtArrayINS_7TfTokenEE6cbeginEv(ptr noundef nonnull align 8 dereferenceable(40) %0)
  %4 = tail call noundef ptr @_ZNK32pxrInternal_v0_24__pxrReserved__7VtArrayINS_7TfTokenEE4cendEv(ptr noundef nonnull align 8 dereferenceable(40) %0)
  %5 = ptrtoint ptr %4 to i64
  %6 = ptrtoint ptr %3 to i64
  %7 = sub i64 %5, %6
  %8 = ashr i64 %7, 5
  %9 = icmp sgt i64 %8, 0
  br i1 %9, label %.lr.ph.i.i.i, label %._crit_edge.i.i.i

.lr.ph.i.i.i:                                     ; preds = %2
  %10 = load ptr, ptr %1, align 8
  %11 = ptrtoint ptr %10 to i64
  %12 = and i64 %7, -32
  %scevgep.i.i.i = getelementptr i8, ptr %3, i64 %12
  br label %13

13:                                               ; preds = %36, %.lr.ph.i.i.i
  %.047.i.i.i = phi i64 [ %8, %.lr.ph.i.i.i ], [ %38, %36 ]
  %.02946.i.i.i = phi ptr [ %3, %.lr.ph.i.i.i ], [ %37, %36 ]
  %14 = load ptr, ptr %.02946.i.i.i, align 8
  %15 = ptrtoint ptr %14 to i64
  %16 = xor i64 %15, %11
  %17 = icmp ult i64 %16, 8
  br i1 %17, label %_ZSt4findIPKN32pxrInternal_v0_24__pxrReserved__7TfTokenES1_ET_S4_S4_RKT0_.exit, label %18

18:                                               ; preds = %13
  %19 = getelementptr inbounds nuw i8, ptr %.02946.i.i.i, i64 8
  %20 = load ptr, ptr %19, align 8
  %21 = ptrtoint ptr %20 to i64
  %22 = xor i64 %21, %11
  %23 = icmp ult i64 %22, 8
  br i1 %23, label %_ZSt4findIPKN32pxrInternal_v0_24__pxrReserved__7TfTokenES1_ET_S4_S4_RKT0_.exit.loopexit.split.loop.exit, label %24

24:                                               ; preds = %18
  %25 = getelementptr inbounds nuw i8, ptr %.02946.i.i.i, i64 16
  %26 = load ptr, ptr %25, align 8
  %27 = ptrtoint ptr %26 to i64
  %28 = xor i64 %27, %11
  %29 = icmp ult i64 %28, 8
  br i1 %29, label %_ZSt4findIPKN32pxrInternal_v0_24__pxrReserved__7TfTokenES1_ET_S4_S4_RKT0_.exit.loopexit.split.loop.exit16, label %30

30:                                               ; preds = %24
  %31 = getelementptr inbounds nuw i8, ptr %.02946.i.i.i, i64 24
  %32 = load ptr, ptr %31, align 8
  %33 = ptrtoint ptr %32 to i64
  %34 = xor i64 %33, %11
  %35 = icmp ult i64 %34, 8
  br i1 %35, label %_ZSt4findIPKN32pxrInternal_v0_24__pxrReserved__7TfTokenES1_ET_S4_S4_RKT0_.exit.loopexit.split.loop.exit18, label %36

36:                                               ; preds = %30
  %37 = getelementptr inbounds nuw i8, ptr %.02946.i.i.i, i64 32
  %38 = add nsw i64 %.047.i.i.i, -1
  %39 = icmp sgt i64 %.047.i.i.i, 1
  br i1 %39, label %13, label %._crit_edge.loopexit.i.i.i, !llvm.loop !70

._crit_edge.loopexit.i.i.i:                       ; preds = %36
  %.pre54.i.i.i = ptrtoint ptr %scevgep.i.i.i to i64
  %.pre55.i.i.i = sub i64 %5, %.pre54.i.i.i
  br label %._crit_edge.i.i.i

._crit_edge.i.i.i:                                ; preds = %._crit_edge.loopexit.i.i.i, %2
  %.pre-phi56.i.i.i = phi i64 [ %.pre55.i.i.i, %._crit_edge.loopexit.i.i.i ], [ %7, %2 ]
  %.029.lcssa.i.i.i = phi ptr [ %scevgep.i.i.i, %._crit_edge.loopexit.i.i.i ], [ %3, %2 ]
  %40 = ashr exact i64 %.pre-phi56.i.i.i, 3
  switch i64 %40, label %62 [
    i64 3, label %41
    i64 2, label %._crit_edge._crit_edge.i.i.i
    i64 1, label %._crit_edge._crit_edge52.i.i.i
  ]

._crit_edge._crit_edge52.i.i.i:                   ; preds = %._crit_edge.i.i.i
  %.pre53.i.i.i = load ptr, ptr %1, align 8
  %.pre59.i.i.i = ptrtoint ptr %.pre53.i.i.i to i64
  br label %57

._crit_edge._crit_edge.i.i.i:                     ; preds = %._crit_edge.i.i.i
  %.pre.i.i.i = load ptr, ptr %1, align 8
  %.pre57.i.i.i = ptrtoint ptr %.pre.i.i.i to i64
  br label %50

41:                                               ; preds = %._crit_edge.i.i.i
  %42 = load ptr, ptr %.029.lcssa.i.i.i, align 8
  %43 = ptrtoint ptr %42 to i64
  %44 = load ptr, ptr %1, align 8
  %45 = ptrtoint ptr %44 to i64
  %46 = xor i64 %45, %43
  %47 = icmp ult i64 %46, 8
  br i1 %47, label %_ZSt4findIPKN32pxrInternal_v0_24__pxrReserved__7TfTokenES1_ET_S4_S4_RKT0_.exit, label %48

48:                                               ; preds = %41
  %49 = getelementptr inbounds nuw i8, ptr %.029.lcssa.i.i.i, i64 8
  br label %50

50:                                               ; preds = %48, %._crit_edge._crit_edge.i.i.i
  %.pre-phi58.i.i.i = phi i64 [ %.pre57.i.i.i, %._crit_edge._crit_edge.i.i.i ], [ %45, %48 ]
  %.1.i.i.i = phi ptr [ %.029.lcssa.i.i.i, %._crit_edge._crit_edge.i.i.i ], [ %49, %48 ]
  %51 = load ptr, ptr %.1.i.i.i, align 8
  %52 = ptrtoint ptr %51 to i64
  %53 = xor i64 %.pre-phi58.i.i.i, %52
  %54 = icmp ult i64 %53, 8
  br i1 %54, label %_ZSt4findIPKN32pxrInternal_v0_24__pxrReserved__7TfTokenES1_ET_S4_S4_RKT0_.exit, label %55

55:                                               ; preds = %50
  %56 = getelementptr inbounds nuw i8, ptr %.1.i.i.i, i64 8
  br label %57

57:                                               ; preds = %55, %._crit_edge._crit_edge52.i.i.i
  %.pre-phi60.i.i.i = phi i64 [ %.pre59.i.i.i, %._crit_edge._crit_edge52.i.i.i ], [ %.pre-phi58.i.i.i, %55 ]
  %.2.i.i.i = phi ptr [ %.029.lcssa.i.i.i, %._crit_edge._crit_edge52.i.i.i ], [ %56, %55 ]
  %58 = load ptr, ptr %.2.i.i.i, align 8
  %59 = ptrtoint ptr %58 to i64
  %60 = xor i64 %.pre-phi60.i.i.i, %59
  %61 = icmp ult i64 %60, 8
  br i1 %61, label %_ZSt4findIPKN32pxrInternal_v0_24__pxrReserved__7TfTokenES1_ET_S4_S4_RKT0_.exit, label %62

62:                                               ; preds = %57, %._crit_edge.i.i.i
  br label %_ZSt4findIPKN32pxrInternal_v0_24__pxrReserved__7TfTokenES1_ET_S4_S4_RKT0_.exit

_ZSt4findIPKN32pxrInternal_v0_24__pxrReserved__7TfTokenES1_ET_S4_S4_RKT0_.exit.loopexit.split.loop.exit: ; preds = %18
  %63 = getelementptr inbounds nuw i8, ptr %.02946.i.i.i, i64 8
  br label %_ZSt4findIPKN32pxrInternal_v0_24__pxrReserved__7TfTokenES1_ET_S4_S4_RKT0_.exit

_ZSt4findIPKN32pxrInternal_v0_24__pxrReserved__7TfTokenES1_ET_S4_S4_RKT0_.exit.loopexit.split.loop.exit16: ; preds = %24
  %64 = getelementptr inbounds nuw i8, ptr %.02946.i.i.i, i64 16
  br label %_ZSt4findIPKN32pxrInternal_v0_24__pxrReserved__7TfTokenES1_ET_S4_S4_RKT0_.exit

_ZSt4findIPKN32pxrInternal_v0_24__pxrReserved__7TfTokenES1_ET_S4_S4_RKT0_.exit.loopexit.split.loop.exit18: ; preds = %30
  %65 = getelementptr inbounds nuw i8, ptr %.02946.i.i.i, i64 24
  br label %_ZSt4findIPKN32pxrInternal_v0_24__pxrReserved__7TfTokenES1_ET_S4_S4_RKT0_.exit

_ZSt4findIPKN32pxrInternal_v0_24__pxrReserved__7TfTokenES1_ET_S4_S4_RKT0_.exit: ; preds = %13, %_ZSt4findIPKN32pxrInternal_v0_24__pxrReserved__7TfTokenES1_ET_S4_S4_RKT0_.exit.loopexit.split.loop.exit, %_ZSt4findIPKN32pxrInternal_v0_24__pxrReserved__7TfTokenES1_ET_S4_S4_RKT0_.exit.loopexit.split.loop.exit16, %_ZSt4findIPKN32pxrInternal_v0_24__pxrReserved__7TfTokenES1_ET_S4_S4_RKT0_.exit.loopexit.split.loop.exit18, %41, %50, %57, %62
  %.028.i.i.i = phi ptr [ %4, %62 ], [ %.029.lcssa.i.i.i, %41 ], [ %.1.i.i.i, %50 ], [ %.2.i.i.i, %57 ], [ %63, %_ZSt4findIPKN32pxrInternal_v0_24__pxrReserved__7TfTokenES1_ET_S4_S4_RKT0_.exit.loopexit.split.loop.exit ], [ %64, %_ZSt4findIPKN32pxrInternal_v0_24__pxrReserved__7TfTokenES1_ET_S4_S4_RKT0_.exit.loopexit.split.loop.exit16 ], [ %65, %_ZSt4findIPKN32pxrInternal_v0_24__pxrReserved__7TfTokenES1_ET_S4_S4_RKT0_.exit.loopexit.split.loop.exit18 ], [ %.02946.i.i.i, %13 ]
  %66 = tail call noundef ptr @_ZNK32pxrInternal_v0_24__pxrReserved__7VtArrayINS_7TfTokenEE4cendEv(ptr noundef nonnull align 8 dereferenceable(40) %0)
  %67 = icmp ne ptr %.028.i.i.i, %66
  ret i1 %67
}